target datalayout = "e-m:e-p270:32:32-p271:32:32-p272:64:64-i64:64-i128:128-f80:128-n8:16:32:64-S128"
target triple = "x86_64-pc-linux-gnu"

%"class.algebraic_numbers::manager" = type <{ ptr, ptr, i8, [7 x i8] }>
%"struct.algebraic_numbers::manager::imp" = type { ptr, ptr, ptr, ptr, %class.mpbq_manager, %class.mpbqi_manager, %"class.polynomial::manager", %"class.upolynomial::manager", %class.mpq, %class._scoped_numeral, %"class.upolynomial::scoped_numeral_vector", %"class.upolynomial::scoped_numeral_vector", %"class.upolynomial::scoped_numeral_vector", %"class.upolynomial::scoped_numeral_vector", %"class.upolynomial::core_manager::factors", %class._scoped_numeral_vector.3, %class._scoped_numeral_vector.3, %class._scoped_numeral_vector.3, %"class.upolynomial::scoped_numeral_vector", i32, i32, i32, i8, %"struct.polynomial::factor_params", i32, i32, i32, i32, i32, %class.svector.1, %class.svector.1 }
%class.mpbq_manager = type { ptr, %class.mpz, %class.mpz, %class.mpbq, %class.mpz, %class.mpz, %class.mpz, %class.mpbq, %class.mpbq, %class.mpz, %class.mpz, %class.mpz }
%class.mpbq = type <{ %class.mpz, i32, [4 x i8] }>
%class.mpz = type { i32, i8, ptr }
%class.mpbqi_manager = type { %class.basic_interval_manager }
%class.basic_interval_manager = type { ptr, %class.mpbq, %class.mpbq, %class.mpbq }
%"class.polynomial::manager" = type { ptr }
%"class.upolynomial::manager" = type { %"class.upolynomial::core_manager", %class.svector, %class.svector, %class.svector, %class.svector, %class.svector }
%"class.upolynomial::core_manager" = type { ptr, %class.mpzzp_manager, %class.svector, %class.svector, %class.svector, %class.svector, %class.svector, %class.svector, %class.svector, [6 x %class.svector], %class.svector, %class.svector, %class.svector }
%class.mpzzp_manager = type { ptr, i8, %class.mpz, %class.mpz, %class.mpz, i8, %class.mpz, %class.mpz, %class.mpz, %class.mpz }
%class.svector = type { %class.vector }
%class.vector = type { ptr }
%class.mpq = type { %class.mpz, %class.mpz }
%class._scoped_numeral = type { ptr, %class.mpz }
%"class.upolynomial::core_manager::factors" = type { %class.vector.0, %class.svector.1, ptr, %class.mpz, i32, i32 }
%class.vector.0 = type { ptr }
%class._scoped_numeral_vector.3 = type { %class.svector.4, ptr }
%class.svector.4 = type { %class.vector.5 }
%class.vector.5 = type { ptr }
%"class.upolynomial::scoped_numeral_vector" = type { %class._scoped_numeral_vector }
%class._scoped_numeral_vector = type { %class.svector, ptr }
%"struct.polynomial::factor_params" = type { i32, i32, i32 }
%class.svector.1 = type { %class.vector.2 }
%class.vector.2 = type { ptr }
%"struct.algebraic_numbers::algebraic_cell" = type <{ i32, [4 x i8], ptr, %"class.basic_interval_manager<mpbq_manager, false>::interval", i32, [4 x i8] }>
%"class.basic_interval_manager<mpbq_manager, false>::interval" = type { %class.mpbq, %class.mpbq }
%class._scoped_numeral.15 = type { ptr, %class.mpbq }
%"class.algebraic_numbers::anum" = type { ptr }

; Function Attrs: inlinehint mustprogress nounwind uwtable
define linkonce_odr hidden noundef zeroext i1 @_ZNK3mpz8is_smallEv(ptr noundef nonnull align 8 dereferenceable(16) %0) #8 comdat align 2 {
  %2 = alloca ptr, align 8
  store ptr %0, ptr %2, align 8, !tbaa !73
  %3 = load ptr, ptr %2, align 8
  %4 = getelementptr inbounds nuw %class.mpz, ptr %3, i32 0, i32 1
  %5 = load i8, ptr %4, align 4
  %6 = and i8 %5, 1
  %7 = zext i8 %6 to i32
  %8 = icmp eq i32 %7, 0
  ret i1 %8
}

; Function Attrs: mustprogress nounwind uwtable
define linkonce_odr hidden void @_ZN3mpz3setEi(ptr noundef nonnull align 8 dereferenceable(16) %0, i32 noundef %1) #5 comdat align 2 {
  %3 = alloca ptr, align 8
  %4 = alloca i32, align 4
  store ptr %0, ptr %3, align 8, !tbaa !73
  store i32 %1, ptr %4, align 4, !tbaa !76
  %5 = load ptr, ptr %3, align 8
  %6 = load i32, ptr %4, align 4, !tbaa !76
  %7 = getelementptr inbounds nuw %class.mpz, ptr %5, i32 0, i32 0
  store i32 %6, ptr %7, align 8, !tbaa !168
  %8 = getelementptr inbounds nuw %class.mpz, ptr %5, i32 0, i32 1
  %9 = load i8, ptr %8, align 4
  %10 = and i8 %9, -2
  %11 = or i8 %10, 0
  store i8 %11, ptr %8, align 4
  ret void
}

; Function Attrs: inlinehint mustprogress nounwind uwtable
define linkonce_odr hidden noundef i32 @_ZNK3mpz5valueEv(ptr noundef nonnull align 8 dereferenceable(16) %0) #8 comdat align 2 {
  %2 = alloca ptr, align 8
  store ptr %0, ptr %2, align 8, !tbaa !73
  %3 = load ptr, ptr %2, align 8
  %4 = getelementptr inbounds nuw %class.mpz, ptr %3, i32 0, i32 0
  %5 = load i32, ptr %4, align 8, !tbaa !168
  ret i32 %5
}

; Function Attrs: mustprogress uwtable
define linkonce_odr hidden noundef zeroext i1 @_ZN11mpz_managerILb0EE8is_smallERK3mpz(ptr noundef nonnull align 8 dereferenceable(16) %0) #4 comdat align 2 {
  %2 = alloca ptr, align 8
  store ptr %0, ptr %2, align 8, !tbaa !73
  %3 = load ptr, ptr %2, align 8, !tbaa !73
  %4 = call noundef zeroext i1 @_ZNK3mpz8is_smallEv(ptr noundef nonnull align 8 dereferenceable(16) %3)
  ret i1 %4
}

; Function Attrs: mustprogress uwtable
define linkonce_odr hidden void @_ZN11mpz_managerILb0EE3setER3mpzRKS1_(ptr noundef nonnull align 8 dereferenceable(600) %0, ptr noundef nonnull align 8 dereferenceable(16) %1, ptr noundef nonnull align 8 dereferenceable(16) %2) #4 comdat align 2 {
  %4 = alloca ptr, align 8
  %5 = alloca ptr, align 8
  %6 = alloca ptr, align 8
  store ptr %0, ptr %4, align 8, !tbaa !154
  store ptr %1, ptr %5, align 8, !tbaa !73
  store ptr %2, ptr %6, align 8, !tbaa !73
  %7 = load ptr, ptr %4, align 8
  %8 = load ptr, ptr %6, align 8, !tbaa !73
  %9 = call noundef zeroext i1 @_ZN11mpz_managerILb0EE8is_smallERK3mpz(ptr noundef nonnull align 8 dereferenceable(16) %8)
  br i1 %9, label %10, label %14

10:                                               ; preds = %3
  %11 = load ptr, ptr %5, align 8, !tbaa !73
  %12 = load ptr, ptr %6, align 8, !tbaa !73
  %13 = call noundef i32 @_ZNK3mpz5valueEv(ptr noundef nonnull align 8 dereferenceable(16) %12)
  call void @_ZN3mpz3setEi(ptr noundef nonnull align 8 dereferenceable(16) %11, i32 noundef %13)
  br label %17

14:                                               ; preds = %3
  %15 = load ptr, ptr %5, align 8, !tbaa !73
  %16 = load ptr, ptr %6, align 8, !tbaa !73
  call void @_ZN11mpz_managerILb0EE7big_setER3mpzRKS1_(ptr noundef nonnull align 8 dereferenceable(600) %7, ptr noundef nonnull align 8 dereferenceable(16) %15, ptr noundef nonnull align 8 dereferenceable(16) %16)
  br label %17

17:                                               ; preds = %14, %10
  ret void
}

; Function Attrs: mustprogress nounwind uwtable
define linkonce_odr hidden void @_ZN3mpzC2Ei(ptr noundef nonnull align 8 dereferenceable(16) %0, i32 noundef %1) unnamed_addr #5 comdat align 2 {
  %3 = alloca ptr, align 8
  %4 = alloca i32, align 4
  store ptr %0, ptr %3, align 8, !tbaa !73
  store i32 %1, ptr %4, align 4, !tbaa !76
  %5 = load ptr, ptr %3, align 8
  %6 = getelementptr inbounds nuw %class.mpz, ptr %5, i32 0, i32 0
  %7 = load i32, ptr %4, align 4, !tbaa !76
  store i32 %7, ptr %6, align 8, !tbaa !168
  %8 = getelementptr inbounds nuw %class.mpz, ptr %5, i32 0, i32 1
  %9 = load i8, ptr %8, align 4
  %10 = and i8 %9, -2
  %11 = or i8 %10, 0
  store i8 %11, ptr %8, align 4
  %12 = getelementptr inbounds nuw %class.mpz, ptr %5, i32 0, i32 1
  %13 = load i8, ptr %12, align 4
  %14 = and i8 %13, -3
  %15 = or i8 %14, 0
  store i8 %15, ptr %12, align 4
  %16 = getelementptr inbounds nuw %class.mpz, ptr %5, i32 0, i32 2
  store ptr null, ptr %16, align 8, !tbaa !169
  ret void
}

; Function Attrs: mustprogress nounwind uwtable
define linkonce_odr hidden noundef nonnull align 8 dereferenceable(728) ptr @_ZN17algebraic_numbers7manager3imp2qmEv(ptr noundef nonnull align 8 dereferenceable(936) %0) #5 comdat align 2 {
  %2 = alloca ptr, align 8
  store ptr %0, ptr %2, align 8, !tbaa !24
  %3 = load ptr, ptr %2, align 8
  %4 = getelementptr inbounds nuw %"struct.algebraic_numbers::manager::imp", ptr %3, i32 0, i32 3
  %5 = load ptr, ptr %4, align 8, !tbaa !64
  ret ptr %5
}

; Function Attrs: mustprogress uwtable
define linkonce_odr hidden void @_ZN12mpbq_manager3setER4mpbqRKS0_(ptr noundef nonnull align 8 dereferenceable(208) %0, ptr noundef nonnull align 8 dereferenceable(20) %1, ptr noundef nonnull align 8 dereferenceable(20) %2) #4 comdat align 2 {
  %4 = alloca ptr, align 8
  %5 = alloca ptr, align 8
  %6 = alloca ptr, align 8
  store ptr %0, ptr %4, align 8, !tbaa !121
  store ptr %1, ptr %5, align 8, !tbaa !120
  store ptr %2, ptr %6, align 8, !tbaa !120
  %7 = load ptr, ptr %4, align 8
  %8 = getelementptr inbounds nuw %class.mpbq_manager, ptr %7, i32 0, i32 0
  %9 = load ptr, ptr %8, align 8, !tbaa !122
  %10 = load ptr, ptr %5, align 8, !tbaa !120
  %11 = getelementptr inbounds nuw %class.mpbq, ptr %10, i32 0, i32 0
  %12 = load ptr, ptr %6, align 8, !tbaa !120
  %13 = getelementptr inbounds nuw %class.mpbq, ptr %12, i32 0, i32 0
  call void @_ZN11mpz_managerILb0EE3setER3mpzRKS1_(ptr noundef nonnull align 8 dereferenceable(600) %9, ptr noundef nonnull align 8 dereferenceable(16) %11, ptr noundef nonnull align 8 dereferenceable(16) %13)
  %14 = load ptr, ptr %6, align 8, !tbaa !120
  %15 = getelementptr inbounds nuw %class.mpbq, ptr %14, i32 0, i32 1
  %16 = load i32, ptr %15, align 8, !tbaa !123
  %17 = load ptr, ptr %5, align 8, !tbaa !120
  %18 = getelementptr inbounds nuw %class.mpbq, ptr %17, i32 0, i32 1
  store i32 %16, ptr %18, align 8, !tbaa !123
  ret void
}

; Function Attrs: mustprogress nounwind uwtable
define linkonce_odr hidden noundef nonnull align 8 dereferenceable(20) ptr @_ZN22basic_interval_managerI12mpbq_managerLb0EE8interval5lowerEv(ptr noundef nonnull align 8 dereferenceable(48) %0) #5 comdat align 2 {
  %2 = alloca ptr, align 8
  store ptr %0, ptr %2, align 8, !tbaa !125
  %3 = load ptr, ptr %2, align 8
  %4 = getelementptr inbounds nuw %"class.basic_interval_manager<mpbq_manager, false>::interval", ptr %3, i32 0, i32 0
  ret ptr %4
}

; Function Attrs: mustprogress nounwind uwtable
define linkonce_odr hidden noundef ptr @_ZNK17algebraic_numbers4anum12to_algebraicEv(ptr noundef nonnull align 8 dereferenceable(8) %0) #5 comdat align 2 {
  %2 = alloca ptr, align 8
  store ptr %0, ptr %2, align 8, !tbaa !65
  %3 = load ptr, ptr %2, align 8
  %4 = getelementptr inbounds nuw %"class.algebraic_numbers::anum", ptr %3, i32 0, i32 0
  %5 = load ptr, ptr %4, align 8, !tbaa !124
  %6 = ptrtoint ptr %5 to i64
  %7 = and i64 %6, -8
  %8 = inttoptr i64 %7 to ptr
  ret ptr %8
}

; Function Attrs: mustprogress uwtable
define linkonce_odr hidden void @_ZN4mpbqC2Ev(ptr noundef nonnull align 8 dereferenceable(20) %0) unnamed_addr #4 comdat align 2 {
  %2 = alloca ptr, align 8
  store ptr %0, ptr %2, align 8, !tbaa !120
  %3 = load ptr, ptr %2, align 8
  %4 = getelementptr inbounds nuw %class.mpbq, ptr %3, i32 0, i32 0
  call void @_ZN3mpzC2Ei(ptr noundef nonnull align 8 dereferenceable(16) %4, i32 noundef 0)
  %5 = getelementptr inbounds nuw %class.mpbq, ptr %3, i32 0, i32 1
  store i32 0, ptr %5, align 8, !tbaa !123
  ret void
}

; Function Attrs: mustprogress nounwind uwtable
define linkonce_odr hidden noundef nonnull align 8 dereferenceable(208) ptr @_ZN17algebraic_numbers7manager3imp3bqmEv(ptr noundef nonnull align 8 dereferenceable(936) %0) #5 comdat align 2 {
  %2 = alloca ptr, align 8
  store ptr %0, ptr %2, align 8, !tbaa !24
  %3 = load ptr, ptr %2, align 8
  %4 = getelementptr inbounds nuw %"struct.algebraic_numbers::manager::imp", ptr %3, i32 0, i32 4
  ret ptr %4
}

; Function Attrs: mustprogress uwtable
define hidden noundef nonnull align 8 dereferenceable(728) ptr @_ZNK17algebraic_numbers7manager2qmEv(ptr noundef nonnull align 8 dereferenceable(17) %0) #4 align 2 {
  %2 = alloca ptr, align 8
  store ptr %0, ptr %2, align 8, !tbaa !8
  %3 = load ptr, ptr %2, align 8
  %4 = getelementptr inbounds nuw %"class.algebraic_numbers::manager", ptr %3, i32 0, i32 0
  %5 = load ptr, ptr %4, align 8, !tbaa !23
  %6 = call noundef nonnull align 8 dereferenceable(728) ptr @_ZN17algebraic_numbers7manager3imp2qmEv(ptr noundef nonnull align 8 dereferenceable(936) %5)
  ret ptr %6
}

; Function Attrs: mustprogress uwtable
define hidden void @_ZN17algebraic_numbers7manager9get_lowerERKNS_4anumER4mpbq(ptr noundef nonnull align 8 dereferenceable(17) %0, ptr noundef nonnull align 8 dereferenceable(8) %1, ptr noundef nonnull align 8 dereferenceable(20) %2) #4 align 2 {
  %4 = alloca ptr, align 8
  %5 = alloca ptr, align 8
  %6 = alloca ptr, align 8
  store ptr %0, ptr %4, align 8, !tbaa !8
  store ptr %1, ptr %5, align 8, !tbaa !65
  store ptr %2, ptr %6, align 8, !tbaa !120
  %7 = load ptr, ptr %4, align 8
  %8 = call noundef nonnull align 8 dereferenceable(208) ptr @_ZNK17algebraic_numbers7manager3bqmEv(ptr noundef nonnull align 8 dereferenceable(17) %7)
  %9 = load ptr, ptr %6, align 8, !tbaa !120
  %10 = load ptr, ptr %5, align 8, !tbaa !65
  %11 = call noundef ptr @_ZNK17algebraic_numbers4anum12to_algebraicEv(ptr noundef nonnull align 8 dereferenceable(8) %10)
  %12 = getelementptr inbounds nuw %"struct.algebraic_numbers::algebraic_cell", ptr %11, i32 0, i32 3
  %13 = call noundef nonnull align 8 dereferenceable(20) ptr @_ZN22basic_interval_managerI12mpbq_managerLb0EE8interval5lowerEv(ptr noundef nonnull align 8 dereferenceable(48) %12)
  call void @_ZN12mpbq_manager3setER4mpbqRKS0_(ptr noundef nonnull align 8 dereferenceable(208) %8, ptr noundef nonnull align 8 dereferenceable(20) %9, ptr noundef nonnull align 8 dereferenceable(20) %13)
  ret void
}

; Function Attrs: mustprogress nounwind uwtable
define linkonce_odr hidden noundef nonnull align 8 dereferenceable(20) ptr @_ZN15_scoped_numeralI12mpbq_managerEcvR4mpbqEv(ptr noundef nonnull align 8 dereferenceable(32) %0) #5 comdat align 2 {
  %2 = alloca ptr, align 8
  store ptr %0, ptr %2, align 8, !tbaa !127
  %3 = load ptr, ptr %2, align 8
  %4 = getelementptr inbounds nuw %class._scoped_numeral.15, ptr %3, i32 0, i32 1
  ret ptr %4
}

; Function Attrs: mustprogress uwtable
define linkonce_odr hidden void @_ZN15_scoped_numeralI12mpbq_managerEC2ERS0_(ptr noundef nonnull align 8 dereferenceable(32) %0, ptr noundef nonnull align 8 dereferenceable(208) %1) unnamed_addr #4 comdat align 2 {
  %3 = alloca ptr, align 8
  %4 = alloca ptr, align 8
  store ptr %0, ptr %3, align 8, !tbaa !127
  store ptr %1, ptr %4, align 8, !tbaa !121
  %5 = load ptr, ptr %3, align 8
  %6 = getelementptr inbounds nuw %class._scoped_numeral.15, ptr %5, i32 0, i32 0
  %7 = load ptr, ptr %4, align 8, !tbaa !121
  store ptr %7, ptr %6, align 8, !tbaa !121
  %8 = getelementptr inbounds nuw %class._scoped_numeral.15, ptr %5, i32 0, i32 1
  call void @_ZN4mpbqC2Ev(ptr noundef nonnull align 8 dereferenceable(20) %8)
  ret void
}

; Function Attrs: mustprogress uwtable
define hidden noundef nonnull align 8 dereferenceable(208) ptr @_ZNK17algebraic_numbers7manager3bqmEv(ptr noundef nonnull align 8 dereferenceable(17) %0) #4 align 2 {
  %2 = alloca ptr, align 8
  store ptr %0, ptr %2, align 8, !tbaa !8
  %3 = load ptr, ptr %2, align 8
  %4 = getelementptr inbounds nuw %"class.algebraic_numbers::manager", ptr %3, i32 0, i32 0
  %5 = load ptr, ptr %4, align 8, !tbaa !23
  %6 = call noundef nonnull align 8 dereferenceable(208) ptr @_ZN17algebraic_numbers7manager3imp3bqmEv(ptr noundef nonnull align 8 dereferenceable(936) %5)
  ret ptr %6
}

; Function Attrs: mustprogress uwtable
define hidden void @_ZN17algebraic_numbers7manager9get_lowerERKNS_4anumER3mpq(ptr noundef nonnull align 8 dereferenceable(17) %0, ptr noundef nonnull align 8 dereferenceable(8) %1, ptr noundef nonnull align 8 dereferenceable(32) %2) #4 align 2 personality ptr @__gxx_personality_v0 {
  %4 = alloca ptr, align 8
  %5 = alloca ptr, align 8
  %6 = alloca ptr, align 8
  %7 = alloca %class._scoped_numeral.15, align 8
  %8 = alloca ptr, align 8
  %9 = alloca i32, align 4
  store ptr %0, ptr %4, align 8, !tbaa !8
  store ptr %1, ptr %5, align 8, !tbaa !65
  store ptr %2, ptr %6, align 8, !tbaa !78
  %10 = load ptr, ptr %4, align 8
  call void @llvm.lifetime.start.p0(i64 32, ptr %7) #3
  %11 = call noundef nonnull align 8 dereferenceable(208) ptr @_ZNK17algebraic_numbers7manager3bqmEv(ptr noundef nonnull align 8 dereferenceable(17) %10)
  call void @_ZN15_scoped_numeralI12mpbq_managerEC2ERS0_(ptr noundef nonnull align 8 dereferenceable(32) %7, ptr noundef nonnull align 8 dereferenceable(208) %11)
  %12 = load ptr, ptr %5, align 8, !tbaa !65
  %13 = invoke noundef nonnull align 8 dereferenceable(20) ptr @_ZN15_scoped_numeralI12mpbq_managerEcvR4mpbqEv(ptr noundef nonnull align 8 dereferenceable(32) %7)
          to label %14 unwind label %22

14:                                               ; preds = %3
  invoke void @_ZN17algebraic_numbers7manager9get_lowerERKNS_4anumER4mpbq(ptr noundef nonnull align 8 dereferenceable(17) %10, ptr noundef nonnull align 8 dereferenceable(8) %12, ptr noundef nonnull align 8 dereferenceable(20) %13)
          to label %15 unwind label %22

15:                                               ; preds = %14
  %16 = invoke noundef nonnull align 8 dereferenceable(728) ptr @_ZNK17algebraic_numbers7manager2qmEv(ptr noundef nonnull align 8 dereferenceable(17) %10)
          to label %17 unwind label %22

17:                                               ; preds = %15
  %18 = invoke noundef nonnull align 8 dereferenceable(20) ptr @_ZN15_scoped_numeralI12mpbq_managerEcvR4mpbqEv(ptr noundef nonnull align 8 dereferenceable(32) %7)
          to label %19 unwind label %22

19:                                               ; preds = %17
  %20 = load ptr, ptr %6, align 8, !tbaa !78
  invoke void @_Z6to_mpqI11mpq_managerILb0EEEvRT_RK4mpbqR3mpq(ptr noundef nonnull align 8 dereferenceable(728) %16, ptr noundef nonnull align 8 dereferenceable(20) %18, ptr noundef nonnull align 8 dereferenceable(32) %20)
          to label %21 unwind label %22

21:                                               ; preds = %19
  call void @_ZN15_scoped_numeralI12mpbq_managerED2Ev(ptr noundef nonnull align 8 dereferenceable(32) %7) #3
  call void @llvm.lifetime.end.p0(i64 32, ptr %7) #3
  ret void

22:                                               ; preds = %19, %17, %15, %14, %3
  %23 = landingpad { ptr, i32 }
          cleanup
  %24 = extractvalue { ptr, i32 } %23, 0
  store ptr %24, ptr %8, align 8
  %25 = extractvalue { ptr, i32 } %23, 1
  store i32 %25, ptr %9, align 4
  call void @_ZN15_scoped_numeralI12mpbq_managerED2Ev(ptr noundef nonnull align 8 dereferenceable(32) %7) #3
  call void @llvm.lifetime.end.p0(i64 32, ptr %7) #3
  br label %26

26:                                               ; preds = %22
  %27 = load ptr, ptr %8, align 8
  %28 = load i32, ptr %9, align 4
  %29 = insertvalue { ptr, i32 } poison, ptr %27, 0
  %30 = insertvalue { ptr, i32 } %29, i32 %28, 1
  resume { ptr, i32 } %30
}